target datalayout = "e-m:e-p270:32:32-p271:32:32-p272:64:64-i64:64-i128:128-f80:128-n8:16:32:64-S128"
target triple = "x86_64-pc-linux-gnu"

%struct.CLAMFI = type { ptr, ptr, ptr, ptr, ptr, i32, i32, i32, i32, i32, i32, i32, i32, i32, i32, i32, [1424 x i8] }

@FailAction = internal global i32 0, align 4
@maxfilesize = dso_local global i64 0, align 8
@.str.58 = private unnamed_addr constant [40 x i8] c"Failed to initiate streaming/fdpassing\0A\00", align 1
@.str.59 = private unnamed_addr constant [20 x i8] c"From clamav-milter\0A\00", align 1
@.str.60 = private unnamed_addr constant [32 x i8] c"Failed to write temporary file\0A\00", align 1
@.str.61 = private unnamed_addr constant [18 x i8] c"Streaming failed\0A\00", align 1

; Function Attrs: nounwind uwtable
define internal i32 @sendchunk(ptr noundef %0, ptr noundef %1, i64 noundef %2, ptr noundef %3) #0 {
  %5 = alloca i32, align 4
  %6 = alloca ptr, align 8
  %7 = alloca ptr, align 8
  %8 = alloca i64, align 8
  %9 = alloca ptr, align 8
  %10 = alloca i32, align 4
  %11 = alloca i32, align 4
  %12 = alloca i32, align 4
  %13 = alloca i32, align 4
  store ptr %0, ptr %6, align 8
  store ptr %1, ptr %7, align 8
  store i64 %2, ptr %8, align 8
  store ptr %3, ptr %9, align 8
  %14 = load ptr, ptr %6, align 8
  %15 = getelementptr inbounds %struct.CLAMFI, ptr %14, i32 0, i32 8
  %16 = load i32, ptr %15, align 4
  %17 = zext i32 %16 to i64
  %18 = load i64, ptr @maxfilesize, align 8
  %19 = icmp uge i64 %17, %18
  br i1 %19, label %23, label %20

20:                                               ; preds = %4
  %21 = load i64, ptr %8, align 8
  %22 = icmp eq i64 %21, 0
  br i1 %22, label %23, label %24

23:                                               ; preds = %20, %4
  store i32 0, ptr %5, align 4
  br label %243

24:                                               ; preds = %20
  %25 = load ptr, ptr %6, align 8
  %26 = getelementptr inbounds %struct.CLAMFI, ptr %25, i32 0, i32 8
  %27 = load i32, ptr %26, align 4
  %28 = icmp ne i32 %27, 0
  br i1 %28, label %57, label %29

29:                                               ; preds = %24
  %30 = load ptr, ptr %6, align 8
  %31 = getelementptr inbounds %struct.CLAMFI, ptr %30, i32 0, i32 6
  %32 = load ptr, ptr %6, align 8
  %33 = getelementptr inbounds %struct.CLAMFI, ptr %32, i32 0, i32 7
  %34 = load ptr, ptr %6, align 8
  %35 = getelementptr inbounds %struct.CLAMFI, ptr %34, i32 0, i32 5
  %36 = call i32 @nc_connect_rand(ptr noundef %31, ptr noundef %33, ptr noundef %35)
  %37 = icmp ne i32 %36, 0
  br i1 %37, label %38, label %43

38:                                               ; preds = %29
  %39 = call i32 (i32, ptr, ...) @logg(i32 noundef 5, ptr noundef @.str.58)
  %40 = load ptr, ptr %9, align 8
  %41 = load ptr, ptr %6, align 8
  call void @nullify(ptr noundef %40, ptr noundef %41, i32 noundef 0)
  %42 = load i32, ptr @FailAction, align 4
  store i32 %42, ptr %5, align 4
  br label %243

43:                                               ; preds = %29
  %44 = load ptr, ptr %6, align 8
  %45 = getelementptr inbounds %struct.CLAMFI, ptr %44, i32 0, i32 8
  store i32 1, ptr %45, align 4
  %46 = load ptr, ptr %6, align 8
  %47 = load ptr, ptr %9, align 8
  %48 = call i32 @sendchunk(ptr noundef %46, ptr noundef @.str.59, i64 noundef 19, ptr noundef %47)
  store i32 %48, ptr %10, align 4
  %49 = icmp ne i32 %48, 0
  br i1 %49, label %50, label %52

50:                                               ; preds = %43
  %51 = load i32, ptr %10, align 4
  store i32 %51, ptr %5, align 4
  br label %243

52:                                               ; preds = %43
  %53 = load ptr, ptr %6, align 8
  %54 = getelementptr inbounds %struct.CLAMFI, ptr %53, i32 0, i32 8
  %55 = load i32, ptr %54, align 4
  %56 = sub i32 %55, 1
  store i32 %56, ptr %54, align 4
  br label %57

57:                                               ; preds = %52, %24
  %58 = load ptr, ptr %6, align 8
  %59 = getelementptr inbounds %struct.CLAMFI, ptr %58, i32 0, i32 8
  %60 = load i32, ptr %59, align 4
  %61 = zext i32 %60 to i64
  %62 = load i64, ptr %8, align 8
  %63 = add i64 %61, %62
  %64 = load i64, ptr @maxfilesize, align 8
  %65 = icmp ugt i64 %63, %64
  br i1 %65, label %66, label %73

66:                                               ; preds = %57
  %67 = load i64, ptr @maxfilesize, align 8
  %68 = load ptr, ptr %6, align 8
  %69 = getelementptr inbounds %struct.CLAMFI, ptr %68, i32 0, i32 8
  %70 = load i32, ptr %69, align 4
  %71 = zext i32 %70 to i64
  %72 = sub i64 %67, %71
  store i64 %72, ptr %8, align 8
  br label %73

73:                                               ; preds = %66, %57
  %74 = load i64, ptr %8, align 8
  %75 = load ptr, ptr %6, align 8
  %76 = getelementptr inbounds %struct.CLAMFI, ptr %75, i32 0, i32 8
  %77 = load i32, ptr %76, align 4
  %78 = zext i32 %77 to i64
  %79 = add i64 %78, %74
  %80 = trunc i64 %79 to i32
  store i32 %80, ptr %76, align 4
  %81 = load ptr, ptr %6, align 8
  %82 = getelementptr inbounds %struct.CLAMFI, ptr %81, i32 0, i32 5
  %83 = load i32, ptr %82, align 8
  %84 = icmp ne i32 %83, 0
  br i1 %84, label %85, label %114

85:                                               ; preds = %73
  br label %86

86:                                               ; preds = %104, %85
  %87 = load i64, ptr %8, align 8
  %88 = icmp ne i64 %87, 0
  br i1 %88, label %89, label %113

89:                                               ; preds = %86
  %90 = load ptr, ptr %6, align 8
  %91 = getelementptr inbounds %struct.CLAMFI, ptr %90, i32 0, i32 7
  %92 = load i32, ptr %91, align 8
  %93 = load ptr, ptr %7, align 8
  %94 = load i64, ptr %8, align 8
  %95 = call i64 @write(i32 noundef %92, ptr noundef %93, i64 noundef %94)
  %96 = trunc i64 %95 to i32
  store i32 %96, ptr %11, align 4
  %97 = load i32, ptr %11, align 4
  %98 = icmp eq i32 %97, -1
  br i1 %98, label %99, label %104

99:                                               ; preds = %89
  %100 = call i32 (i32, ptr, ...) @logg(i32 noundef 5, ptr noundef @.str.60)
  %101 = load ptr, ptr %9, align 8
  %102 = load ptr, ptr %6, align 8
  call void @nullify(ptr noundef %101, ptr noundef %102, i32 noundef 3)
  %103 = load i32, ptr @FailAction, align 4
  store i32 %103, ptr %5, align 4
  br label %243

104:                                              ; preds = %89
  %105 = load i32, ptr %11, align 4
  %106 = sext i32 %105 to i64
  %107 = load i64, ptr %8, align 8
  %108 = sub i64 %107, %106
  store i64 %108, ptr %8, align 8
  %109 = load i32, ptr %11, align 4
  %110 = load ptr, ptr %7, align 8
  %111 = sext i32 %109 to i64
  %112 = getelementptr inbounds i8, ptr %110, i64 %111
  store ptr %112, ptr %7, align 8
  br label %86

113:                                              ; preds = %86
  br label %242

114:                                              ; preds = %73
  store i32 0, ptr %12, align 4
  %115 = load i64, ptr %8, align 8
  %116 = load ptr, ptr %6, align 8
  %117 = getelementptr inbounds %struct.CLAMFI, ptr %116, i32 0, i32 9
  %118 = load i32, ptr %117, align 8
  %119 = sub i32 1424, %118
  %120 = zext i32 %119 to i64
  %121 = icmp ult i64 %115, %120
  br i1 %121, label %122, label %139

122:                                              ; preds = %114
  %123 = load ptr, ptr %6, align 8
  %124 = getelementptr inbounds %struct.CLAMFI, ptr %123, i32 0, i32 16
  %125 = load ptr, ptr %6, align 8
  %126 = getelementptr inbounds %struct.CLAMFI, ptr %125, i32 0, i32 9
  %127 = load i32, ptr %126, align 8
  %128 = zext i32 %127 to i64
  %129 = getelementptr inbounds [1424 x i8], ptr %124, i64 0, i64 %128
  %130 = load ptr, ptr %7, align 8
  %131 = load i64, ptr %8, align 8
  call void @llvm.memcpy.p0.p0.i64(ptr align 1 %129, ptr align 1 %130, i64 %131, i1 false)
  %132 = load i64, ptr %8, align 8
  %133 = load ptr, ptr %6, align 8
  %134 = getelementptr inbounds %struct.CLAMFI, ptr %133, i32 0, i32 9
  %135 = load i32, ptr %134, align 8
  %136 = zext i32 %135 to i64
  %137 = add i64 %136, %132
  %138 = trunc i64 %137 to i32
  store i32 %138, ptr %134, align 8
  br label %233

139:                                              ; preds = %114
  %140 = load i64, ptr %8, align 8
  %141 = icmp ult i64 %140, 1424
  br i1 %141, label %142, label %187

142:                                              ; preds = %139
  %143 = load ptr, ptr %6, align 8
  %144 = getelementptr inbounds %struct.CLAMFI, ptr %143, i32 0, i32 16
  %145 = load ptr, ptr %6, align 8
  %146 = getelementptr inbounds %struct.CLAMFI, ptr %145, i32 0, i32 9
  %147 = load i32, ptr %146, align 8
  %148 = zext i32 %147 to i64
  %149 = getelementptr inbounds [1424 x i8], ptr %144, i64 0, i64 %148
  %150 = load ptr, ptr %7, align 8
  %151 = load ptr, ptr %6, align 8
  %152 = getelementptr inbounds %struct.CLAMFI, ptr %151, i32 0, i32 9
  %153 = load i32, ptr %152, align 8
  %154 = sub i32 1424, %153
  %155 = zext i32 %154 to i64
  call void @llvm.memcpy.p0.p0.i64(ptr align 1 %149, ptr align 1 %150, i64 %155, i1 false)
  %156 = call i32 @htonl(i32 noundef 1424) #11
  %157 = load ptr, ptr %6, align 8
  %158 = getelementptr inbounds %struct.CLAMFI, ptr %157, i32 0, i32 15
  store i32 %156, ptr %158, align 8
  %159 = load ptr, ptr %6, align 8
  %160 = getelementptr inbounds %struct.CLAMFI, ptr %159, i32 0, i32 6
  %161 = load i32, ptr %160, align 4
  %162 = load ptr, ptr %6, align 8
  %163 = getelementptr inbounds %struct.CLAMFI, ptr %162, i32 0, i32 15
  %164 = call i32 @nc_send(i32 noundef %161, ptr noundef %163, i64 noundef 1428)
  store i32 %164, ptr %12, align 4
  %165 = load ptr, ptr %6, align 8
  %166 = getelementptr inbounds %struct.CLAMFI, ptr %165, i32 0, i32 9
  %167 = load i32, ptr %166, align 8
  %168 = sub i32 1424, %167
  %169 = zext i32 %168 to i64
  %170 = load i64, ptr %8, align 8
  %171 = sub i64 %170, %169
  store i64 %171, ptr %8, align 8
  %172 = load ptr, ptr %6, align 8
  %173 = getelementptr inbounds %struct.CLAMFI, ptr %172, i32 0, i32 16
  %174 = getelementptr inbounds [1424 x i8], ptr %173, i64 0, i64 0
  %175 = load ptr, ptr %7, align 8
  %176 = load ptr, ptr %6, align 8
  %177 = getelementptr inbounds %struct.CLAMFI, ptr %176, i32 0, i32 9
  %178 = load i32, ptr %177, align 8
  %179 = sub i32 1424, %178
  %180 = zext i32 %179 to i64
  %181 = getelementptr inbounds i8, ptr %175, i64 %180
  %182 = load i64, ptr %8, align 8
  call void @llvm.memcpy.p0.p0.i64(ptr align 4 %174, ptr align 1 %181, i64 %182, i1 false)
  %183 = load i64, ptr %8, align 8
  %184 = trunc i64 %183 to i32
  %185 = load ptr, ptr %6, align 8
  %186 = getelementptr inbounds %struct.CLAMFI, ptr %185, i32 0, i32 9
  store i32 %184, ptr %186, align 8
  br label %232

187:                                              ; preds = %139
  %188 = load i64, ptr %8, align 8
  %189 = trunc i64 %188 to i32
  %190 = call i32 @htonl(i32 noundef %189) #11
  store i32 %190, ptr %13, align 4
  %191 = load ptr, ptr %6, align 8
  %192 = getelementptr inbounds %struct.CLAMFI, ptr %191, i32 0, i32 9
  %193 = load i32, ptr %192, align 8
  %194 = call i32 @htonl(i32 noundef %193) #11
  %195 = load ptr, ptr %6, align 8
  %196 = getelementptr inbounds %struct.CLAMFI, ptr %195, i32 0, i32 15
  store i32 %194, ptr %196, align 8
  %197 = load ptr, ptr %6, align 8
  %198 = getelementptr inbounds %struct.CLAMFI, ptr %197, i32 0, i32 9
  %199 = load i32, ptr %198, align 8
  %200 = icmp ne i32 %199, 0
  br i1 %200, label %201, label %214

201:                                              ; preds = %187
  %202 = load ptr, ptr %6, align 8
  %203 = getelementptr inbounds %struct.CLAMFI, ptr %202, i32 0, i32 6
  %204 = load i32, ptr %203, align 4
  %205 = load ptr, ptr %6, align 8
  %206 = getelementptr inbounds %struct.CLAMFI, ptr %205, i32 0, i32 15
  %207 = load ptr, ptr %6, align 8
  %208 = getelementptr inbounds %struct.CLAMFI, ptr %207, i32 0, i32 9
  %209 = load i32, ptr %208, align 8
  %210 = add i32 %209, 4
  %211 = zext i32 %210 to i64
  %212 = call i32 @nc_send(i32 noundef %204, ptr noundef %206, i64 noundef %211)
  %213 = icmp ne i32 %212, 0
  br i1 %213, label %228, label %214

214:                                              ; preds = %201, %187
  %215 = load ptr, ptr %6, align 8
  %216 = getelementptr inbounds %struct.CLAMFI, ptr %215, i32 0, i32 6
  %217 = load i32, ptr %216, align 4
  %218 = call i32 @nc_send(i32 noundef %217, ptr noundef %13, i64 noundef 4)
  %219 = icmp ne i32 %218, 0
  br i1 %219, label %228, label %220

220:                                              ; preds = %214
  %221 = load ptr, ptr %6, align 8
  %222 = getelementptr inbounds %struct.CLAMFI, ptr %221, i32 0, i32 6
  %223 = load i32, ptr %222, align 4
  %224 = load ptr, ptr %7, align 8
  %225 = load i64, ptr %8, align 8
  %226 = call i32 @nc_send(i32 noundef %223, ptr noundef %224, i64 noundef %225)
  %227 = icmp ne i32 %226, 0
  br i1 %227, label %228, label %229

228:                                              ; preds = %220, %214, %201
  store i32 1, ptr %12, align 4
  br label %229

229:                                              ; preds = %228, %220
  %230 = load ptr, ptr %6, align 8
  %231 = getelementptr inbounds %struct.CLAMFI, ptr %230, i32 0, i32 9
  store i32 0, ptr %231, align 8
  br label %232

232:                                              ; preds = %229, %142
  br label %233

233:                                              ; preds = %232, %122
  %234 = load i32, ptr %12, align 4
  %235 = icmp ne i32 %234, 0
  br i1 %235, label %236, label %241

236:                                              ; preds = %233
  %237 = call i32 (i32, ptr, ...) @logg(i32 noundef 5, ptr noundef @.str.61)
  %238 = load ptr, ptr %9, align 8
  %239 = load ptr, ptr %6, align 8
  call void @nullify(ptr noundef %238, ptr noundef %239, i32 noundef 0)
  %240 = load i32, ptr @FailAction, align 4
  store i32 %240, ptr %5, align 4
  br label %243

241:                                              ; preds = %233
  br label %242

242:                                              ; preds = %241, %113
  store i32 0, ptr %5, align 4
  br label %243

243:                                              ; preds = %242, %236, %99, %50, %38, %23
  %244 = load i32, ptr %5, align 4
  ret i32 %244
}