; Function Attrs: nounwind uwtable
define internal fastcc i32 @sendchunk(ptr noundef %0, ptr noundef %1, i64 noundef %2, ptr noundef %3) unnamed_addr #0 {
  %5 = alloca i32, align 4
  %6 = getelementptr inbounds i8, ptr %0, i64 52
  %7 = load i32, ptr %6, align 4
  %8 = zext i32 %7 to i64
  %9 = load i64, ptr @maxfilesize, align 8
  %10 = icmp ule i64 %9, %8
  %11 = icmp eq i64 %2, 0
  %or.cond = or i1 %11, %10
  br i1 %or.cond, label %.loopexit, label %12

12:                                               ; preds = %4
  %.not = icmp eq i32 %7, 0
  br i1 %.not, label %13, label %26

13:                                               ; preds = %12
  %14 = getelementptr inbounds i8, ptr %0, i64 44
  %15 = getelementptr inbounds i8, ptr %0, i64 48
  %16 = getelementptr inbounds i8, ptr %0, i64 40
  %17 = tail call i32 @nc_connect_rand(ptr noundef nonnull %14, ptr noundef nonnull %15, ptr noundef nonnull %16) #17
  %.not80 = icmp eq i32 %17, 0
  br i1 %.not80, label %21, label %18

18:                                               ; preds = %13
  %19 = tail call i32 (i32, ptr, ...) @logg(i32 noundef 5, ptr noundef nonnull @.str.58) #17
  tail call fastcc void @nullify(ptr noundef %3, ptr noundef nonnull %0, i32 noundef 0)
  %20 = load i32, ptr @FailAction, align 4
  br label %.loopexit

21:                                               ; preds = %13
  store i32 1, ptr %6, align 4
  %22 = tail call fastcc i32 @sendchunk(ptr noundef nonnull %0, ptr noundef nonnull @.str.59, i64 noundef 19, ptr noundef %3)
  %.not81 = icmp eq i32 %22, 0
  br i1 %.not81, label %23, label %.loopexit

23:                                               ; preds = %21
  %24 = load i32, ptr %6, align 4
  %25 = add i32 %24, -1
  %.pre = load i64, ptr @maxfilesize, align 8
  %.pre94 = zext i32 %25 to i64
  br label %26

26:                                               ; preds = %23, %12
  %.pre-phi = phi i64 [ %.pre94, %23 ], [ %8, %12 ]
  %27 = phi i64 [ %.pre, %23 ], [ %9, %12 ]
  %28 = phi i32 [ %25, %23 ], [ %7, %12 ]
  %29 = add i64 %.pre-phi, %2
  %30 = icmp ugt i64 %29, %27
  %31 = sub i64 %27, %.pre-phi
  %spec.select = select i1 %30, i64 %31, i64 %2
  %32 = trunc i64 %spec.select to i32
  %33 = add i32 %28, %32
  store i32 %33, ptr %6, align 4
  %34 = getelementptr inbounds i8, ptr %0, i64 40
  %35 = load i32, ptr %34, align 8
  %.not82 = icmp eq i32 %35, 0
  br i1 %.not82, label %49, label %.preheader

.preheader:                                       ; preds = %26
  %.not8891 = icmp eq i64 %spec.select, 0
  br i1 %.not8891, label %.loopexit, label %.lr.ph

.lr.ph:                                           ; preds = %.preheader
  %36 = getelementptr inbounds i8, ptr %0, i64 48
  br label %37

37:                                               ; preds = %.lr.ph, %45
  %.07193 = phi ptr [ %1, %.lr.ph ], [ %48, %45 ]
  %.17392 = phi i64 [ %spec.select, %.lr.ph ], [ %47, %45 ]
  %38 = load i32, ptr %36, align 8
  %39 = tail call i64 @write(i32 noundef %38, ptr noundef %.07193, i64 noundef %.17392) #17
  %40 = and i64 %39, 4294967295
  %41 = icmp eq i64 %40, 4294967295
  br i1 %41, label %42, label %45

42:                                               ; preds = %37
  %43 = tail call i32 (i32, ptr, ...) @logg(i32 noundef 5, ptr noundef nonnull @.str.60) #17
  tail call fastcc void @nullify(ptr noundef %3, ptr noundef nonnull %0, i32 noundef 3)
  %44 = load i32, ptr @FailAction, align 4
  br label %.loopexit

45:                                               ; preds = %37
  %sext = shl i64 %39, 32
  %46 = ashr exact i64 %sext, 32
  %47 = sub i64 %.17392, %46
  %48 = getelementptr inbounds i8, ptr %.07193, i64 %46
  %.not88 = icmp eq i64 %47, 0
  br i1 %.not88, label %.loopexit, label %37

49:                                               ; preds = %26
  %50 = getelementptr inbounds i8, ptr %0, i64 56
  %51 = load i32, ptr %50, align 8
  %52 = sub i32 1424, %51
  %53 = zext i32 %52 to i64
  %54 = icmp ult i64 %spec.select, %53
  br i1 %54, label %.thread, label %60

.thread:                                          ; preds = %49
  %55 = getelementptr inbounds i8, ptr %0, i64 84
  %56 = zext i32 %51 to i64
  %57 = getelementptr inbounds [1424 x i8], ptr %55, i64 0, i64 %56
  tail call void @llvm.memcpy.p0.p0.i64(ptr nonnull align 1 %57, ptr align 1 %1, i64 %spec.select, i1 false)
  %58 = load i32, ptr %50, align 8
  %59 = add i32 %58, %32
  store i32 %59, ptr %50, align 8
  br label %.loopexit

60:                                               ; preds = %49
  %61 = icmp ult i64 %spec.select, 1424
  br i1 %61, label %79, label %62

62:                                               ; preds = %60
  %63 = tail call i32 @htonl(i32 noundef %32) #19
  store i32 %63, ptr %5, align 4
  %64 = tail call i32 @htonl(i32 noundef %51) #19
  %65 = getelementptr inbounds i8, ptr %0, i64 80
  store i32 %64, ptr %65, align 8
  %.not83 = icmp eq i32 %51, 0
  br i1 %.not83, label %72, label %66

66:                                               ; preds = %62
  %67 = getelementptr inbounds i8, ptr %0, i64 44
  %68 = load i32, ptr %67, align 4
  %69 = add i32 %51, 4
  %70 = zext i32 %69 to i64
  %71 = tail call i32 @nc_send(i32 noundef %68, ptr noundef nonnull %65, i64 noundef %70) #17
  %.not84 = icmp eq i32 %71, 0
  br i1 %.not84, label %72, label %.thread98

72:                                               ; preds = %66, %62
  %73 = getelementptr inbounds i8, ptr %0, i64 44
  %74 = load i32, ptr %73, align 4
  %75 = call i32 @nc_send(i32 noundef %74, ptr noundef nonnull %5, i64 noundef 4) #17
  %.not85 = icmp eq i32 %75, 0
  br i1 %.not85, label %76, label %.thread98

76:                                               ; preds = %72
  %77 = load i32, ptr %73, align 4
  %78 = call i32 @nc_send(i32 noundef %77, ptr noundef %1, i64 noundef %spec.select) #17
  %.not86 = icmp eq i32 %78, 0
  br i1 %.not86, label %.thread95, label %.thread98

.thread95:                                        ; preds = %76
  store i32 0, ptr %50, align 8
  br label %.loopexit

.thread98:                                        ; preds = %66, %72, %76
  store i32 0, ptr %50, align 8
  br label %95

79:                                               ; preds = %60
  %80 = getelementptr inbounds i8, ptr %0, i64 84
  %81 = zext i32 %51 to i64
  %82 = getelementptr inbounds [1424 x i8], ptr %80, i64 0, i64 %81
  tail call void @llvm.memcpy.p0.p0.i64(ptr nonnull align 1 %82, ptr align 1 %1, i64 %53, i1 false)
  %83 = tail call i32 @htonl(i32 noundef 1424) #19
  %84 = getelementptr inbounds i8, ptr %0, i64 80
  store i32 %83, ptr %84, align 8
  %85 = getelementptr inbounds i8, ptr %0, i64 44
  %86 = load i32, ptr %85, align 4
  %87 = tail call i32 @nc_send(i32 noundef %86, ptr noundef nonnull %84, i64 noundef 1428) #17
  %88 = load i32, ptr %50, align 8
  %89 = sub i32 1424, %88
  %90 = zext i32 %89 to i64
  %91 = sub nsw i64 %spec.select, %90
  %92 = getelementptr inbounds i8, ptr %1, i64 %90
  tail call void @llvm.memcpy.p0.p0.i64(ptr nonnull align 4 %80, ptr align 1 %92, i64 %91, i1 false)
  %93 = trunc i64 %91 to i32
  %94 = icmp eq i32 %87, 0
  store i32 %93, ptr %50, align 8
  br i1 %94, label %.loopexit, label %95

95:                                               ; preds = %.thread98, %79
  %96 = call i32 (i32, ptr, ...) @logg(i32 noundef 5, ptr noundef nonnull @.str.61) #17
  call fastcc void @nullify(ptr noundef %3, ptr noundef nonnull %0, i32 noundef 0)
  %97 = load i32, ptr @FailAction, align 4
  br label %.loopexit

.loopexit:                                        ; preds = %45, %.thread95, %.preheader, %.thread, %79, %21, %4, %95, %42, %18
  %.070 = phi i32 [ %44, %42 ], [ %97, %95 ], [ %20, %18 ], [ 0, %4 ], [ %22, %21 ], [ 0, %79 ], [ 0, %.thread ], [ 0, %.preheader ], [ 0, %.thread95 ], [ 0, %45 ]
  ret i32 %.070
}